; Function Attrs: nounwind uwtable
define ptr @l_Lake_logWarning___rarg(ptr noundef %0, ptr noundef %1) #1 {
  tail call void @lean_inc_heartbeat() #9
  %3 = tail call noalias ptr @mi_malloc_small(i64 noundef 24) #9
  %4 = icmp eq ptr %3, null
  br i1 %4, label %5, label %lean_alloc_ctor.exit

5:                                                ; preds = %2
  tail call void @lean_internal_panic_out_of_memory() #10
  unreachable

lean_alloc_ctor.exit:                             ; preds = %2
  %6 = getelementptr inbounds nuw i8, ptr %3, i64 4
  %7 = getelementptr inbounds nuw i8, ptr %3, i64 16
  store i64 2, ptr %7, align 8, !tbaa !16
  store i32 1, ptr %3, align 4, !tbaa !4
  store i32 65560, ptr %6, align 4
  %8 = getelementptr inbounds nuw i8, ptr %3, i64 8
  store ptr %1, ptr %8, align 8, !tbaa !10
  %9 = tail call ptr @lean_apply_1(ptr noundef %0, ptr noundef nonnull %3) #9
  ret ptr %9
}